target datalayout = "e-m:e-p270:32:32-p271:32:32-p272:64:64-i64:64-i128:128-f80:128-n8:16:32:64-S128"
target triple = "x86_64-pc-linux-gnu"

%struct.uv_stat_t = type { i64, i64, i64, i64, i64, i64, i64, i64, i64, i64, i64, i64, %struct.uv_timespec_t, %struct.uv_timespec_t, %struct.uv_timespec_t, %struct.uv_timespec_t }
%struct.uv_timespec_t = type { i64, i64 }
%struct.uv_fs_poll_s = type { ptr, ptr, i32, ptr, [2 x ptr], %union.anon, ptr, i32, ptr }
%union.anon = type { [4 x ptr] }
%struct.poll_ctx = type { ptr, i32, i32, i64, ptr, ptr, %struct.uv_timer_s, %struct.uv_fs_s, %struct.uv_stat_t, ptr, [1 x i8] }
%struct.uv_timer_s = type { ptr, ptr, i32, ptr, [2 x ptr], %union.anon.5, ptr, i32, ptr, [3 x ptr], i64, i64, i64 }
%union.anon.5 = type { [4 x ptr] }
%struct.uv_fs_s = type { ptr, i32, [6 x ptr], i32, ptr, ptr, i64, ptr, ptr, %struct.uv_stat_t, ptr, i32, i32, i32, i32, ptr, i64, i32, i32, double, double, %struct.uv__work, [4 x %struct.uv_buf_t] }
%struct.uv__work = type { ptr, ptr, ptr, [2 x ptr] }
%struct.uv_buf_t = type { ptr, i64 }

; Function Attrs: nounwind uwtable
define internal void @timer_close_cb(ptr noundef %0) #0 {
  %2 = alloca ptr, align 8
  %3 = alloca ptr, align 8
  %4 = alloca ptr, align 8
  %5 = alloca ptr, align 8
  %6 = alloca ptr, align 8
  store ptr %0, ptr %2, align 8, !tbaa !60
  call void @llvm.lifetime.start.p0(i64 8, ptr %3) #6
  call void @llvm.lifetime.start.p0(i64 8, ptr %4) #6
  call void @llvm.lifetime.start.p0(i64 8, ptr %5) #6
  call void @llvm.lifetime.start.p0(i64 8, ptr %6) #6
  %7 = load ptr, ptr %2, align 8, !tbaa !60
  %8 = getelementptr inbounds i8, ptr %7, i64 -40
  store ptr %8, ptr %3, align 8, !tbaa !27
  %9 = load ptr, ptr %3, align 8, !tbaa !27
  %10 = getelementptr inbounds nuw %struct.poll_ctx, ptr %9, i32 0, i32 0
  %11 = load ptr, ptr %10, align 8, !tbaa !41
  store ptr %11, ptr %6, align 8, !tbaa !9
  %12 = load ptr, ptr %3, align 8, !tbaa !27
  %13 = load ptr, ptr %6, align 8, !tbaa !9
  %14 = getelementptr inbounds nuw %struct.uv_fs_poll_s, ptr %13, i32 0, i32 8
  %15 = load ptr, ptr %14, align 8, !tbaa !19
  %16 = icmp eq ptr %12, %15
  br i1 %16, label %17, label %36

17:                                               ; preds = %1
  %18 = load ptr, ptr %3, align 8, !tbaa !27
  %19 = getelementptr inbounds nuw %struct.poll_ctx, ptr %18, i32 0, i32 9
  %20 = load ptr, ptr %19, align 8, !tbaa !53
  %21 = load ptr, ptr %6, align 8, !tbaa !9
  %22 = getelementptr inbounds nuw %struct.uv_fs_poll_s, ptr %21, i32 0, i32 8
  store ptr %20, ptr %22, align 8, !tbaa !19
  %23 = load ptr, ptr %6, align 8, !tbaa !9
  %24 = getelementptr inbounds nuw %struct.uv_fs_poll_s, ptr %23, i32 0, i32 8
  %25 = load ptr, ptr %24, align 8, !tbaa !19
  %26 = icmp eq ptr %25, null
  br i1 %26, label %27, label %35

27:                                               ; preds = %17
  %28 = load ptr, ptr %6, align 8, !tbaa !9
  %29 = getelementptr inbounds nuw %struct.uv_fs_poll_s, ptr %28, i32 0, i32 7
  %30 = load i32, ptr %29, align 8, !tbaa !54
  %31 = and i32 %30, 3
  %32 = icmp ne i32 %31, 0
  br i1 %32, label %33, label %35

33:                                               ; preds = %27
  %34 = load ptr, ptr %6, align 8, !tbaa !9
  call void @uv__make_close_pending(ptr noundef %34)
  br label %35

35:                                               ; preds = %33, %27, %17
  br label %59

36:                                               ; preds = %1
  %37 = load ptr, ptr %6, align 8, !tbaa !9
  %38 = getelementptr inbounds nuw %struct.uv_fs_poll_s, ptr %37, i32 0, i32 8
  %39 = load ptr, ptr %38, align 8, !tbaa !19
  store ptr %39, ptr %5, align 8, !tbaa !27
  %40 = load ptr, ptr %5, align 8, !tbaa !27
  %41 = getelementptr inbounds nuw %struct.poll_ctx, ptr %40, i32 0, i32 9
  %42 = load ptr, ptr %41, align 8, !tbaa !53
  store ptr %42, ptr %4, align 8, !tbaa !27
  br label %43

43:                                               ; preds = %48, %36
  %44 = load ptr, ptr %4, align 8, !tbaa !27
  %45 = load ptr, ptr %3, align 8, !tbaa !27
  %46 = icmp ne ptr %44, %45
  br i1 %46, label %47, label %53

47:                                               ; preds = %43
  br label %48

48:                                               ; preds = %47
  %49 = load ptr, ptr %4, align 8, !tbaa !27
  store ptr %49, ptr %5, align 8, !tbaa !27
  %50 = load ptr, ptr %4, align 8, !tbaa !27
  %51 = getelementptr inbounds nuw %struct.poll_ctx, ptr %50, i32 0, i32 9
  %52 = load ptr, ptr %51, align 8, !tbaa !53
  store ptr %52, ptr %4, align 8, !tbaa !27
  br label %43, !llvm.loop !61

53:                                               ; preds = %43
  %54 = load ptr, ptr %3, align 8, !tbaa !27
  %55 = getelementptr inbounds nuw %struct.poll_ctx, ptr %54, i32 0, i32 9
  %56 = load ptr, ptr %55, align 8, !tbaa !53
  %57 = load ptr, ptr %5, align 8, !tbaa !27
  %58 = getelementptr inbounds nuw %struct.poll_ctx, ptr %57, i32 0, i32 9
  store ptr %56, ptr %58, align 8, !tbaa !53
  br label %59

59:                                               ; preds = %53, %35
  %60 = load ptr, ptr %3, align 8, !tbaa !27
  call void @uv__free(ptr noundef %60)
  call void @llvm.lifetime.end.p0(i64 8, ptr %6) #6
  call void @llvm.lifetime.end.p0(i64 8, ptr %5) #6
  call void @llvm.lifetime.end.p0(i64 8, ptr %4) #6
  call void @llvm.lifetime.end.p0(i64 8, ptr %3) #6
  ret void
}