; Function Attrs: nounwind uwtable
define internal void @timer_close_cb(ptr noundef %0) #1 {
  %2 = getelementptr inbounds i8, ptr %0, i64 -40
  %3 = load ptr, ptr %2, align 8, !tbaa !35
  %4 = getelementptr inbounds nuw i8, ptr %3, i64 96
  %5 = load ptr, ptr %4, align 8, !tbaa !16
  %6 = icmp eq ptr %2, %5
  br i1 %6, label %7, label %.preheader

7:                                                ; preds = %1
  %8 = getelementptr inbounds nuw i8, ptr %0, i64 752
  %9 = load ptr, ptr %8, align 8, !tbaa !47
  store ptr %9, ptr %4, align 8, !tbaa !16
  %10 = icmp eq ptr %9, null
  br i1 %10, label %11, label %19

11:                                               ; preds = %7
  %12 = getelementptr inbounds nuw i8, ptr %3, i64 88
  %13 = load i32, ptr %12, align 8, !tbaa !48
  %14 = and i32 %13, 3
  %.not21 = icmp eq i32 %14, 0
  br i1 %.not21, label %19, label %15

15:                                               ; preds = %11
  tail call void @uv__make_close_pending(ptr noundef nonnull %3) #7
  br label %19

.preheader:                                       ; preds = %1, %.preheader
  %.018 = phi ptr [ %.0, %.preheader ], [ %5, %1 ]
  %.0.in = getelementptr inbounds nuw i8, ptr %.018, i64 792
  %.0 = load ptr, ptr %.0.in, align 8, !tbaa !47
  %.not = icmp eq ptr %.0, %2
  br i1 %.not, label %16, label %.preheader, !llvm.loop !67

16:                                               ; preds = %.preheader
  %.0.in.le = getelementptr inbounds nuw i8, ptr %.018, i64 792
  %17 = getelementptr inbounds nuw i8, ptr %0, i64 752
  %18 = load ptr, ptr %17, align 8, !tbaa !47
  store ptr %18, ptr %.0.in.le, align 8, !tbaa !47
  br label %19

19:                                               ; preds = %7, %11, %15, %16
  tail call void @uv__free(ptr noundef nonnull %2) #7
  ret void
}